; Function Attrs: nounwind sspstrong uwtable
define internal range(i64 0, 21) i64 @rb_file_symlink_p(i64 %0, i64 noundef %1) #0 {
  %3 = alloca %struct.no_gvl_stat_data, align 8
  %4 = alloca i64, align 8
  %5 = alloca i64, align 8
  %6 = alloca %struct.stat, align 8
  %7 = alloca ptr, align 8
  store i64 %1, ptr %5, align 8, !tbaa !12
  call void @llvm.lifetime.start.p0(i64 144, ptr nonnull %6) #22
  call void @llvm.lifetime.start.p0(i64 8, ptr nonnull %4) #22
  %8 = icmp eq i64 %1, 0
  %9 = and i64 %1, 7
  %10 = icmp ne i64 %9, 0
  %11 = or i1 %8, %10
  br i1 %11, label %rbimpl_RB_TYPE_P_fastpath.exit.thread.i.i, label %rbimpl_RB_TYPE_P_fastpath.exit.i.i

rbimpl_RB_TYPE_P_fastpath.exit.i.i:               ; preds = %2
  %12 = inttoptr i64 %1 to ptr
  %13 = load i64, ptr %12, align 8, !tbaa !7
  %14 = and i64 %13, 31
  %15 = icmp eq i64 %14, 5
  br i1 %15, label %rb_get_path.exit, label %rbimpl_RB_TYPE_P_fastpath.exit.thread.i.i

rbimpl_RB_TYPE_P_fastpath.exit.thread.i.i:        ; preds = %rbimpl_RB_TYPE_P_fastpath.exit.i.i, %2
  %.pr.i.i.i = load i64, ptr @rb_get_path_check_to_string.rbimpl_id, align 8, !tbaa !12
  %.not4.i.i.i = icmp eq i64 %.pr.i.i.i, 0
  br i1 %.not4.i.i.i, label %.lr.ph.i.i.i, label %rbimpl_intern_const.exit.i.i

.lr.ph.i.i.i:                                     ; preds = %rbimpl_RB_TYPE_P_fastpath.exit.thread.i.i, %.lr.ph.i.i.i
  %16 = tail call i64 @rb_intern2(ptr noundef nonnull @.str, i64 noundef 7) #22
  store i64 %16, ptr @rb_get_path_check_to_string.rbimpl_id, align 8, !tbaa !12
  %.not.i.i.i = icmp eq i64 %16, 0
  br i1 %.not.i.i.i, label %.lr.ph.i.i.i, label %rbimpl_intern_const.exit.i.i, !llvm.loop !13

rbimpl_intern_const.exit.i.i:                     ; preds = %.lr.ph.i.i.i, %rbimpl_RB_TYPE_P_fastpath.exit.thread.i.i
  %.lcssa.i.i.i = phi i64 [ %.pr.i.i.i, %rbimpl_RB_TYPE_P_fastpath.exit.thread.i.i ], [ %16, %.lr.ph.i.i.i ]
  %17 = tail call i64 @rb_check_funcall_default(i64 noundef %1, i64 noundef %.lcssa.i.i.i, i32 noundef 0, ptr noundef null, i64 noundef %1) #22
  store i64 %17, ptr %4, align 8, !tbaa !12
  %18 = call i64 @rb_string_value(ptr noundef nonnull %4) #22
  %19 = load i64, ptr %4, align 8, !tbaa !12
  br label %rb_get_path.exit

rb_get_path.exit:                                 ; preds = %rbimpl_RB_TYPE_P_fastpath.exit.i.i, %rbimpl_intern_const.exit.i.i
  %.0.i.i = phi i64 [ %19, %rbimpl_intern_const.exit.i.i ], [ %1, %rbimpl_RB_TYPE_P_fastpath.exit.i.i ]
  call void @llvm.lifetime.end.p0(i64 8, ptr nonnull %4) #22
  %20 = call i64 @rb_get_path_check_convert(i64 noundef %.0.i.i)
  call void @llvm.lifetime.start.p0(i64 8, ptr nonnull %7) #22
  store ptr %5, ptr %7, align 8, !tbaa !46
  call void asm sideeffect "", "*m,~{dirflag},~{fpsr},~{flags}"(ptr nonnull elementtype(ptr) %7) #22, !srcloc !206
  %21 = load ptr, ptr %7, align 8, !tbaa !46
  call void @llvm.lifetime.end.p0(i64 8, ptr nonnull %7) #22
  store volatile i64 %20, ptr %21, align 8, !tbaa !12
  %22 = call ptr @rb_string_value_cstr(ptr noundef nonnull %5) #22
  call void @llvm.lifetime.start.p0(i64 16, ptr nonnull %3) #22
  %23 = getelementptr inbounds nuw i8, ptr %3, i64 8
  store ptr %22, ptr %23, align 8, !tbaa !27
  store ptr %6, ptr %3, align 8, !tbaa !43
  %24 = call ptr @rb_nogvl(ptr noundef nonnull @no_gvl_lstat, ptr noundef nonnull %3, ptr noundef nonnull inttoptr (i64 -1 to ptr), ptr noundef null, i32 noundef 4) #22
  %25 = ptrtoint ptr %24 to i64
  call void @llvm.lifetime.end.p0(i64 16, ptr nonnull %3) #22
  %26 = and i64 %25, 2147483648
  %.not = icmp eq i64 %26, 0
  %27 = getelementptr inbounds nuw i8, ptr %6, i64 24
  %28 = load i32, ptr %27, align 8
  %29 = and i32 %28, 61440
  %30 = icmp eq i32 %29, 40960
  %31 = select i1 %.not, i1 %30, i1 false
  %.0 = select i1 %31, i64 20, i64 0
  call void @llvm.lifetime.end.p0(i64 144, ptr nonnull %6) #22
  ret i64 %.0
}